target datalayout = "e-m:e-p270:32:32-p271:32:32-p272:64:64-i64:64-i128:128-f80:128-n8:16:32:64-S128"
target triple = "x86_64-unknown-linux-gnu"

%class.app = type { %class.expr, ptr, i32, [0 x ptr] }
%class.expr = type { %class.ast }
%class.ast = type { i32, i24, i32, i32 }
%class.decl = type { %class.ast, %class.symbol, ptr }
%class.symbol = type { ptr }
%class.decl_info = type <{ i32, i32, %class.vector.29, i8, [7 x i8] }>
%class.vector.29 = type { ptr }

; Function Attrs: mustprogress nounwind uwtable
define linkonce_odr hidden noundef zeroext i1 @_ZNK9decl_info10is_decl_ofEii(ptr noundef nonnull align 8 dereferenceable(17) %this, i32 noundef %fid, i32 noundef %k) #4 comdat align 2 {
entry:
  %this.addr = alloca ptr, align 8
  %fid.addr = alloca i32, align 4
  %k.addr = alloca i32, align 4
  store ptr %this, ptr %this.addr, align 8
  store i32 %fid, ptr %fid.addr, align 4
  store i32 %k, ptr %k.addr, align 4
  %this1 = load ptr, ptr %this.addr, align 8
  %m_family_id = getelementptr inbounds %class.decl_info, ptr %this1, i32 0, i32 0
  %0 = load i32, ptr %m_family_id, align 8
  %1 = load i32, ptr %fid.addr, align 4
  %cmp = icmp eq i32 %0, %1
  br i1 %cmp, label %land.rhs, label %land.end

land.rhs:                                         ; preds = %entry
  %2 = load i32, ptr %k.addr, align 4
  %m_kind = getelementptr inbounds %class.decl_info, ptr %this1, i32 0, i32 1
  %3 = load i32, ptr %m_kind, align 4
  %cmp2 = icmp eq i32 %2, %3
  br label %land.end

land.end:                                         ; preds = %land.rhs, %entry
  %4 = phi i1 [ false, %entry ], [ %cmp2, %land.rhs ]
  ret i1 %4
}

; Function Attrs: mustprogress uwtable
define linkonce_odr hidden noundef zeroext i1 @_ZNK4decl10is_decl_ofEii(ptr noundef nonnull align 8 dereferenceable(32) %this, i32 noundef %fid, i32 noundef %k) #5 comdat align 2 {
entry:
  %this.addr = alloca ptr, align 8
  %fid.addr = alloca i32, align 4
  %k.addr = alloca i32, align 4
  store ptr %this, ptr %this.addr, align 8
  store i32 %fid, ptr %fid.addr, align 4
  store i32 %k, ptr %k.addr, align 4
  %this1 = load ptr, ptr %this.addr, align 8
  %m_info = getelementptr inbounds %class.decl, ptr %this1, i32 0, i32 2
  %0 = load ptr, ptr %m_info, align 8
  %tobool = icmp ne ptr %0, null
  br i1 %tobool, label %land.rhs, label %land.end

land.rhs:                                         ; preds = %entry
  %m_info2 = getelementptr inbounds %class.decl, ptr %this1, i32 0, i32 2
  %1 = load ptr, ptr %m_info2, align 8
  %2 = load i32, ptr %fid.addr, align 4
  %3 = load i32, ptr %k.addr, align 4
  %call = call noundef zeroext i1 @_ZNK9decl_info10is_decl_ofEii(ptr noundef nonnull align 8 dereferenceable(17) %1, i32 noundef %2, i32 noundef %3)
  br label %land.end

land.end:                                         ; preds = %land.rhs, %entry
  %4 = phi i1 [ false, %entry ], [ %call, %land.rhs ]
  ret i1 %4
}

; Function Attrs: mustprogress uwtable
define linkonce_odr hidden noundef zeroext i1 @_ZNK3app9is_app_ofEii(ptr noundef nonnull align 8 dereferenceable(32) %this, i32 noundef %fid, i32 noundef %k) #5 comdat align 2 {
entry:
  %this.addr = alloca ptr, align 8
  %fid.addr = alloca i32, align 4
  %k.addr = alloca i32, align 4
  store ptr %this, ptr %this.addr, align 8
  store i32 %fid, ptr %fid.addr, align 4
  store i32 %k, ptr %k.addr, align 4
  %this1 = load ptr, ptr %this.addr, align 8
  %m_decl = getelementptr inbounds %class.app, ptr %this1, i32 0, i32 1
  %0 = load ptr, ptr %m_decl, align 8
  %1 = load i32, ptr %fid.addr, align 4
  %2 = load i32, ptr %k.addr, align 4
  %call = call noundef zeroext i1 @_ZNK4decl10is_decl_ofEii(ptr noundef nonnull align 8 dereferenceable(32) %0, i32 noundef %1, i32 noundef %2)
  ret i1 %call
}

; Function Attrs: mustprogress nounwind uwtable
define linkonce_odr hidden noundef ptr @_Z6to_appPK3ast(ptr noundef %n) #4 comdat {
entry:
  %n.addr = alloca ptr, align 8
  store ptr %n, ptr %n.addr, align 8
  %0 = load ptr, ptr %n.addr, align 8
  ret ptr %0
}

; Function Attrs: mustprogress nounwind uwtable
define linkonce_odr hidden noundef i32 @_ZNK3ast8get_kindEv(ptr noundef nonnull align 4 dereferenceable(16) %this) #4 comdat align 2 {
entry:
  %this.addr = alloca ptr, align 8
  store ptr %this, ptr %this.addr, align 8
  %this1 = load ptr, ptr %this.addr, align 8
  %m_kind = getelementptr inbounds %class.ast, ptr %this1, i32 0, i32 1
  %bf.load = load i32, ptr %m_kind, align 4
  %bf.clear = and i32 %bf.load, 65535
  ret i32 %bf.clear
}

; Function Attrs: mustprogress uwtable
define linkonce_odr hidden noundef zeroext i1 @_ZNK17arith_recognizers10is_numeralEPK4expr(ptr noundef nonnull align 1 dereferenceable(1) %this, ptr noundef %n) #5 comdat align 2 {
entry:
  %this.addr = alloca ptr, align 8
  %n.addr = alloca ptr, align 8
  store ptr %this, ptr %this.addr, align 8
  store ptr %n, ptr %n.addr, align 8
  %0 = load ptr, ptr %n.addr, align 8
  %call = call noundef zeroext i1 @_Z9is_app_ofPK4exprii(ptr noundef %0, i32 noundef 5, i32 noundef 0)
  ret i1 %call
}

; Function Attrs: mustprogress uwtable
define linkonce_odr hidden noundef zeroext i1 @_Z9is_app_ofPK4exprii(ptr noundef %n, i32 noundef %fid, i32 noundef %k) #5 comdat {
entry:
  %n.addr = alloca ptr, align 8
  %fid.addr = alloca i32, align 4
  %k.addr = alloca i32, align 4
  store ptr %n, ptr %n.addr, align 8
  store i32 %fid, ptr %fid.addr, align 4
  store i32 %k, ptr %k.addr, align 4
  %0 = load ptr, ptr %n.addr, align 8
  %call = call noundef i32 @_ZNK3ast8get_kindEv(ptr noundef nonnull align 4 dereferenceable(16) %0)
  %cmp = icmp eq i32 %call, 0
  br i1 %cmp, label %land.rhs, label %land.end

land.rhs:                                         ; preds = %entry
  %1 = load ptr, ptr %n.addr, align 8
  %call1 = call noundef ptr @_Z6to_appPK3ast(ptr noundef %1)
  %2 = load i32, ptr %fid.addr, align 4
  %3 = load i32, ptr %k.addr, align 4
  %call2 = call noundef zeroext i1 @_ZNK3app9is_app_ofEii(ptr noundef nonnull align 8 dereferenceable(32) %call1, i32 noundef %2, i32 noundef %3)
  br label %land.end

land.end:                                         ; preds = %land.rhs, %entry
  %4 = phi i1 [ false, %entry ], [ %call2, %land.rhs ]
  ret i1 %4
}

; Function Attrs: mustprogress uwtable
define linkonce_odr hidden noundef zeroext i1 @_ZNK10arith_util10is_numeralEPK4expr(ptr noundef nonnull align 8 dereferenceable(16) %this, ptr noundef %n) #5 comdat align 2 {
entry:
  %this.addr = alloca ptr, align 8
  %n.addr = alloca ptr, align 8
  store ptr %this, ptr %this.addr, align 8
  store ptr %n, ptr %n.addr, align 8
  %this1 = load ptr, ptr %this.addr, align 8
  %0 = load ptr, ptr %n.addr, align 8
  %call = call noundef zeroext i1 @_ZNK17arith_recognizers10is_numeralEPK4expr(ptr noundef nonnull align 1 dereferenceable(1) %this1, ptr noundef %0)
  ret i1 %call
}

; Function Attrs: mustprogress nounwind uwtable
define linkonce_odr hidden noundef ptr @_ZNK3app7get_argEj(ptr noundef nonnull align 8 dereferenceable(32) %this, i32 noundef %idx) #4 comdat align 2 {
entry:
  %this.addr = alloca ptr, align 8
  %idx.addr = alloca i32, align 4
  store ptr %this, ptr %this.addr, align 8
  store i32 %idx, ptr %idx.addr, align 4
  %this1 = load ptr, ptr %this.addr, align 8
  %m_args = getelementptr inbounds %class.app, ptr %this1, i32 0, i32 3
  %0 = load i32, ptr %idx.addr, align 4
  %idxprom = zext i32 %0 to i64
  %arrayidx = getelementptr inbounds [0 x ptr], ptr %m_args, i64 0, i64 %idxprom
  %1 = load ptr, ptr %arrayidx, align 8
  ret ptr %1
}

; Function Attrs: mustprogress nounwind uwtable
define linkonce_odr hidden noundef ptr @_Z6to_appP3ast(ptr noundef %n) #4 comdat {
entry:
  %n.addr = alloca ptr, align 8
  store ptr %n, ptr %n.addr, align 8
  %0 = load ptr, ptr %n.addr, align 8
  ret ptr %0
}

; Function Attrs: mustprogress uwtable
define linkonce_odr hidden noundef zeroext i1 @_ZNK17arith_recognizers9is_to_intEPK4expr(ptr noundef nonnull align 1 dereferenceable(1) %this, ptr noundef %n) #5 comdat align 2 {
entry:
  %this.addr = alloca ptr, align 8
  %n.addr = alloca ptr, align 8
  store ptr %this, ptr %this.addr, align 8
  store ptr %n, ptr %n.addr, align 8
  %0 = load ptr, ptr %n.addr, align 8
  %call = call noundef zeroext i1 @_Z9is_app_ofPK4exprii(ptr noundef %0, i32 noundef 5, i32 noundef 19)
  ret i1 %call
}

; Function Attrs: mustprogress uwtable
define linkonce_odr hidden noundef zeroext i1 @_ZNK17arith_recognizers10is_to_realEPK4expr(ptr noundef nonnull align 1 dereferenceable(1) %this, ptr noundef %n) #5 comdat align 2 {
entry:
  %this.addr = alloca ptr, align 8
  %n.addr = alloca ptr, align 8
  store ptr %this, ptr %this.addr, align 8
  store ptr %n, ptr %n.addr, align 8
  %0 = load ptr, ptr %n.addr, align 8
  %call = call noundef zeroext i1 @_Z9is_app_ofPK4exprii(ptr noundef %0, i32 noundef 5, i32 noundef 18)
  ret i1 %call
}

; Function Attrs: mustprogress uwtable
define linkonce_odr hidden noundef zeroext i1 @_ZNK17arith_recognizers9is_uminusEPK4expr(ptr noundef nonnull align 1 dereferenceable(1) %this, ptr noundef %n) #5 comdat align 2 {
entry:
  %this.addr = alloca ptr, align 8
  %n.addr = alloca ptr, align 8
  store ptr %this, ptr %this.addr, align 8
  store ptr %n, ptr %n.addr, align 8
  %0 = load ptr, ptr %n.addr, align 8
  %call = call noundef zeroext i1 @_Z9is_app_ofPK4exprii(ptr noundef %0, i32 noundef 5, i32 noundef 8)
  ret i1 %call
}

; Function Attrs: mustprogress uwtable
define hidden noundef zeroext i1 @_ZN3smt10theory_opt10is_numeralER10arith_utilP4expr(ptr noundef nonnull align 8 dereferenceable(8) %this, ptr noundef nonnull align 8 dereferenceable(16) %a, ptr noundef %term) #5 align 2 {
entry:
  %this.addr = alloca ptr, align 8
  %a.addr = alloca ptr, align 8
  %term.addr = alloca ptr, align 8
  store ptr %this, ptr %this.addr, align 8
  store ptr %a, ptr %a.addr, align 8
  store ptr %term, ptr %term.addr, align 8
  br label %while.cond

while.cond:                                       ; preds = %while.body, %entry
  %0 = load ptr, ptr %a.addr, align 8
  %1 = load ptr, ptr %term.addr, align 8
  %call = call noundef zeroext i1 @_ZNK17arith_recognizers9is_uminusEPK4expr(ptr noundef nonnull align 1 dereferenceable(1) %0, ptr noundef %1)
  br i1 %call, label %lor.end, label %lor.lhs.false

lor.lhs.false:                                    ; preds = %while.cond
  %2 = load ptr, ptr %a.addr, align 8
  %3 = load ptr, ptr %term.addr, align 8
  %call2 = call noundef zeroext i1 @_ZNK17arith_recognizers10is_to_realEPK4expr(ptr noundef nonnull align 1 dereferenceable(1) %2, ptr noundef %3)
  br i1 %call2, label %lor.end, label %lor.rhs

lor.rhs:                                          ; preds = %lor.lhs.false
  %4 = load ptr, ptr %a.addr, align 8
  %5 = load ptr, ptr %term.addr, align 8
  %call3 = call noundef zeroext i1 @_ZNK17arith_recognizers9is_to_intEPK4expr(ptr noundef nonnull align 1 dereferenceable(1) %4, ptr noundef %5)
  br label %lor.end

lor.end:                                          ; preds = %lor.rhs, %lor.lhs.false, %while.cond
  %6 = phi i1 [ true, %lor.lhs.false ], [ true, %while.cond ], [ %call3, %lor.rhs ]
  br i1 %6, label %while.body, label %while.end

while.body:                                       ; preds = %lor.end
  %7 = load ptr, ptr %term.addr, align 8
  %call4 = call noundef ptr @_Z6to_appP3ast(ptr noundef %7)
  %call5 = call noundef ptr @_ZNK3app7get_argEj(ptr noundef nonnull align 8 dereferenceable(32) %call4, i32 noundef 0)
  store ptr %call5, ptr %term.addr, align 8
  br label %while.cond, !llvm.loop !7

while.end:                                        ; preds = %lor.end
  %8 = load ptr, ptr %a.addr, align 8
  %9 = load ptr, ptr %term.addr, align 8
  %call6 = call noundef zeroext i1 @_ZNK10arith_util10is_numeralEPK4expr(ptr noundef nonnull align 8 dereferenceable(16) %8, ptr noundef %9)
  ret i1 %call6
}