; Function Attrs: mustprogress nofree norecurse nosync nounwind willreturn memory(read, inaccessiblemem: none) uwtable
define hidden noundef zeroext i1 @_ZN3smt10theory_opt10is_numeralER10arith_utilP4expr(ptr nocapture noundef nonnull readnone align 8 dereferenceable(8) %this, ptr nocapture noundef nonnull readnone align 8 dereferenceable(16) %a, ptr nocapture noundef readonly %term) local_unnamed_addr #4 align 2 {
entry:
  %m_kind.i.i.i36 = getelementptr inbounds i8, ptr %term, i64 4
  %bf.load.i.i.i37 = load i32, ptr %m_kind.i.i.i36, align 4
  %bf.clear.i.i.i38 = and i32 %bf.load.i.i.i37, 65535
  %cmp.i.i39 = icmp eq i32 %bf.clear.i.i.i38, 0
  br i1 %cmp.i.i39, label %land.rhs.i.i, label %_ZNK10arith_util10is_numeralEPK4expr.exit

land.rhs.i.i:                                     ; preds = %entry, %while.body
  %term.addr.040 = phi ptr [ %11, %while.body ], [ %term, %entry ]
  %m_decl.i.i.i = getelementptr inbounds i8, ptr %term.addr.040, i64 16
  %0 = load ptr, ptr %m_decl.i.i.i, align 8
  %m_info.i.i.i.i = getelementptr inbounds i8, ptr %0, i64 24
  %1 = load ptr, ptr %m_info.i.i.i.i, align 8
  %tobool.not.i.i.i.i = icmp eq ptr %1, null
  br i1 %tobool.not.i.i.i.i, label %_ZNK10arith_util10is_numeralEPK4expr.exit, label %_ZNK17arith_recognizers9is_uminusEPK4expr.exit

_ZNK17arith_recognizers9is_uminusEPK4expr.exit:   ; preds = %land.rhs.i.i
  %2 = load i32, ptr %1, align 8
  %cmp.i.i.i.i.i = icmp eq i32 %2, 5
  %m_kind.i.i.i.i.i = getelementptr inbounds i8, ptr %1, i64 4
  %3 = load i32, ptr %m_kind.i.i.i.i.i, align 4
  %cmp2.i.i.i.i.i = icmp eq i32 %3, 8
  %4 = select i1 %cmp.i.i.i.i.i, i1 %cmp2.i.i.i.i.i, i1 false
  br i1 %4, label %while.body, label %_ZNK17arith_recognizers10is_to_realEPK4expr.exit

_ZNK17arith_recognizers10is_to_realEPK4expr.exit: ; preds = %_ZNK17arith_recognizers9is_uminusEPK4expr.exit
  %5 = load i32, ptr %1, align 8
  %cmp.i.i.i.i.i17 = icmp eq i32 %5, 5
  %m_kind.i.i.i.i.i18 = getelementptr inbounds i8, ptr %1, i64 4
  %6 = load i32, ptr %m_kind.i.i.i.i.i18, align 4
  %cmp2.i.i.i.i.i19 = icmp eq i32 %6, 18
  %7 = select i1 %cmp.i.i.i.i.i17, i1 %cmp2.i.i.i.i.i19, i1 false
  br i1 %7, label %while.body, label %_ZNK17arith_recognizers9is_to_intEPK4expr.exit

_ZNK17arith_recognizers9is_to_intEPK4expr.exit:   ; preds = %_ZNK17arith_recognizers10is_to_realEPK4expr.exit
  %8 = load i32, ptr %1, align 8
  %cmp.i.i.i.i.i29 = icmp eq i32 %8, 5
  %m_kind.i.i.i.i.i30 = getelementptr inbounds i8, ptr %1, i64 4
  %9 = load i32, ptr %m_kind.i.i.i.i.i30, align 4
  %cmp2.i.i.i.i.i31 = icmp eq i32 %9, 19
  %10 = select i1 %cmp.i.i.i.i.i29, i1 %cmp2.i.i.i.i.i31, i1 false
  br i1 %10, label %while.body, label %land.rhs.i.i.i.i.i

while.body:                                       ; preds = %_ZNK17arith_recognizers10is_to_realEPK4expr.exit, %_ZNK17arith_recognizers9is_uminusEPK4expr.exit, %_ZNK17arith_recognizers9is_to_intEPK4expr.exit
  %m_args.i = getelementptr inbounds i8, ptr %term.addr.040, i64 32
  %11 = load ptr, ptr %m_args.i, align 8
  %m_kind.i.i.i = getelementptr inbounds i8, ptr %11, i64 4
  %bf.load.i.i.i = load i32, ptr %m_kind.i.i.i, align 4
  %bf.clear.i.i.i = and i32 %bf.load.i.i.i, 65535
  %cmp.i.i = icmp eq i32 %bf.clear.i.i.i, 0
  br i1 %cmp.i.i, label %land.rhs.i.i, label %_ZNK10arith_util10is_numeralEPK4expr.exit, !llvm.loop !7

land.rhs.i.i.i.i.i:                               ; preds = %_ZNK17arith_recognizers9is_to_intEPK4expr.exit
  %12 = load i32, ptr %1, align 8
  %cmp.i.i.i.i.i.i = icmp eq i32 %12, 5
  %m_kind.i.i.i.i.i.i = getelementptr inbounds i8, ptr %1, i64 4
  %13 = load i32, ptr %m_kind.i.i.i.i.i.i, align 4
  %cmp2.i.i.i.i.i.i = icmp eq i32 %13, 0
  %14 = select i1 %cmp.i.i.i.i.i.i, i1 %cmp2.i.i.i.i.i.i, i1 false
  br label %_ZNK10arith_util10is_numeralEPK4expr.exit

_ZNK10arith_util10is_numeralEPK4expr.exit:        ; preds = %land.rhs.i.i, %while.body, %entry, %land.rhs.i.i.i.i.i
  %15 = phi i1 [ %14, %land.rhs.i.i.i.i.i ], [ false, %entry ], [ false, %while.body ], [ false, %land.rhs.i.i ]
  ret i1 %15
}